target datalayout = "e-m:e-p270:32:32-p271:32:32-p272:64:64-i64:64-i128:128-f80:128-n8:16:32:64-S128"
target triple = "x86_64-pc-linux-gnu"

%union.pthread_mutex_t = type { %struct.__pthread_mutex_s }
%struct.__pthread_mutex_s = type { i32, i32, i32, i32, i32, i16, i16, %struct.__pthread_internal_list }
%struct.__pthread_internal_list = type { ptr, ptr }

@ctld_failure = dso_local global i8 0, align 1
@trigger_mutex = internal global %union.pthread_mutex_t zeroinitializer, align 8
@.str.2 = private unnamed_addr constant [29 x i8] c"%s: pthread_mutex_lock(): %m\00", align 1
@.str.3 = private unnamed_addr constant [31 x i8] c"%s: pthread_mutex_unlock(): %m\00", align 1
@__func__.trigger_primary_ctld_fail = private unnamed_addr constant [26 x i8] c"trigger_primary_ctld_fail\00", align 1
@trigger_pri_ctld_fail = internal global i8 0, align 1

; Function Attrs: nounwind uwtable
define dso_local void @trigger_primary_ctld_fail() #0 {
  %1 = alloca i32, align 4
  %2 = alloca i32, align 4
  br label %3

3:                                                ; preds = %0
  call void @llvm.lifetime.start.p0(i64 4, ptr %1) #10
  %4 = call i32 @pthread_mutex_lock(ptr noundef @trigger_mutex) #10
  store i32 %4, ptr %1, align 4
  %5 = load i32, ptr %1, align 4
  %6 = icmp ne i32 %5, 0
  br i1 %6, label %7, label %10

7:                                                ; preds = %3
  %8 = load i32, ptr %1, align 4
  %9 = call ptr @__errno_location() #11
  store i32 %8, ptr %9, align 4
  call void (ptr, ...) @fatal_abort(ptr noundef @.str.2, ptr noundef @__func__.trigger_primary_ctld_fail) #12
  unreachable

10:                                               ; preds = %3
  call void @llvm.lifetime.end.p0(i64 4, ptr %1) #10
  br label %11

11:                                               ; preds = %10
  %12 = load i8, ptr @ctld_failure, align 1
  %13 = zext i8 %12 to i32
  %14 = icmp ne i32 %13, 1
  br i1 %14, label %15, label %16

15:                                               ; preds = %11
  store i8 1, ptr @trigger_pri_ctld_fail, align 1
  store i8 1, ptr @ctld_failure, align 1
  br label %16

16:                                               ; preds = %15, %11
  br label %17

17:                                               ; preds = %16
  call void @llvm.lifetime.start.p0(i64 4, ptr %2) #10
  %18 = call i32 @pthread_mutex_unlock(ptr noundef @trigger_mutex) #10
  store i32 %18, ptr %2, align 4
  %19 = load i32, ptr %2, align 4
  %20 = icmp ne i32 %19, 0
  br i1 %20, label %21, label %24

21:                                               ; preds = %17
  %22 = load i32, ptr %2, align 4
  %23 = call ptr @__errno_location() #11
  store i32 %22, ptr %23, align 4
  call void (ptr, ...) @fatal_abort(ptr noundef @.str.3, ptr noundef @__func__.trigger_primary_ctld_fail) #12
  unreachable

24:                                               ; preds = %17
  call void @llvm.lifetime.end.p0(i64 4, ptr %2) #10
  br label %25

25:                                               ; preds = %24
  ret void
}